target datalayout = "e-m:e-p270:32:32-p271:32:32-p272:64:64-i64:64-i128:128-f80:128-n8:16:32:64-S128"
target triple = "x86_64-pc-linux-gnu"

; Function Attrs: nounwind uwtable
define internal void @SDL_Convert71ToStereo(ptr noundef %0, ptr noundef %1, i32 noundef %2) #0 {
  %4 = alloca ptr, align 8
  %5 = alloca ptr, align 8
  %6 = alloca i32, align 4
  %7 = alloca i32, align 4
  %8 = alloca float, align 4
  %9 = alloca float, align 4
  %10 = alloca float, align 4
  %11 = alloca float, align 4
  %12 = alloca float, align 4
  %13 = alloca float, align 4
  store ptr %0, ptr %4, align 8
  store ptr %1, ptr %5, align 8
  store i32 %2, ptr %6, align 4
  call void @llvm.lifetime.start.p0(i64 4, ptr %7) #7
  %14 = load i32, ptr %6, align 4
  store i32 %14, ptr %7, align 4
  br label %15

15:                                               ; preds = %73, %3
  %16 = load i32, ptr %7, align 4
  %17 = icmp ne i32 %16, 0
  br i1 %17, label %18, label %80

18:                                               ; preds = %15
  call void @llvm.lifetime.start.p0(i64 4, ptr %8) #7
  %19 = load ptr, ptr %5, align 8
  %20 = getelementptr inbounds float, ptr %19, i64 2
  %21 = load float, ptr %20, align 4
  store float %21, ptr %8, align 4
  call void @llvm.lifetime.start.p0(i64 4, ptr %9) #7
  %22 = load ptr, ptr %5, align 8
  %23 = getelementptr inbounds float, ptr %22, i64 3
  %24 = load float, ptr %23, align 4
  store float %24, ptr %9, align 4
  call void @llvm.lifetime.start.p0(i64 4, ptr %10) #7
  %25 = load ptr, ptr %5, align 8
  %26 = getelementptr inbounds float, ptr %25, i64 4
  %27 = load float, ptr %26, align 4
  store float %27, ptr %10, align 4
  call void @llvm.lifetime.start.p0(i64 4, ptr %11) #7
  %28 = load ptr, ptr %5, align 8
  %29 = getelementptr inbounds float, ptr %28, i64 5
  %30 = load float, ptr %29, align 4
  store float %30, ptr %11, align 4
  call void @llvm.lifetime.start.p0(i64 4, ptr %12) #7
  %31 = load ptr, ptr %5, align 8
  %32 = getelementptr inbounds float, ptr %31, i64 6
  %33 = load float, ptr %32, align 4
  store float %33, ptr %12, align 4
  call void @llvm.lifetime.start.p0(i64 4, ptr %13) #7
  %34 = load ptr, ptr %5, align 8
  %35 = getelementptr inbounds float, ptr %34, i64 7
  %36 = load float, ptr %35, align 4
  store float %36, ptr %13, align 4
  %37 = load ptr, ptr %5, align 8
  %38 = getelementptr inbounds float, ptr %37, i64 0
  %39 = load float, ptr %38, align 4
  %40 = load float, ptr %8, align 4
  %41 = fmul float %40, 0x3FC33BF020000000
  %42 = call float @llvm.fmuladd.f32(float %39, float 0x3FCB1E7260000000, float %41)
  %43 = load float, ptr %9, align 4
  %44 = call float @llvm.fmuladd.f32(float %43, float 0x3FB1111120000000, float %42)
  %45 = load float, ptr %10, align 4
  %46 = call float @llvm.fmuladd.f32(float %45, float 0x3FC72D3160000000, float %44)
  %47 = load float, ptr %11, align 4
  %48 = call float @llvm.fmuladd.f32(float %47, float 0x3FBC6EDD80000000, float %46)
  %49 = load float, ptr %12, align 4
  %50 = call float @llvm.fmuladd.f32(float %49, float 0x3FC8D95C80000000, float %48)
  %51 = load float, ptr %13, align 4
  %52 = call float @llvm.fmuladd.f32(float %51, float 0x3FB5FB5BA0000000, float %50)
  %53 = load ptr, ptr %4, align 8
  %54 = getelementptr inbounds float, ptr %53, i64 0
  store float %52, ptr %54, align 4
  %55 = load ptr, ptr %5, align 8
  %56 = getelementptr inbounds float, ptr %55, i64 1
  %57 = load float, ptr %56, align 4
  %58 = load float, ptr %8, align 4
  %59 = fmul float %58, 0x3FC33BF020000000
  %60 = call float @llvm.fmuladd.f32(float %57, float 0x3FCB1E7260000000, float %59)
  %61 = load float, ptr %9, align 4
  %62 = call float @llvm.fmuladd.f32(float %61, float 0x3FB1111120000000, float %60)
  %63 = load float, ptr %10, align 4
  %64 = call float @llvm.fmuladd.f32(float %63, float 0x3FBC6EDD80000000, float %62)
  %65 = load float, ptr %11, align 4
  %66 = call float @llvm.fmuladd.f32(float %65, float 0x3FC72D3160000000, float %64)
  %67 = load float, ptr %12, align 4
  %68 = call float @llvm.fmuladd.f32(float %67, float 0x3FB5FB5BA0000000, float %66)
  %69 = load float, ptr %13, align 4
  %70 = call float @llvm.fmuladd.f32(float %69, float 0x3FC8D95C80000000, float %68)
  %71 = load ptr, ptr %4, align 8
  %72 = getelementptr inbounds float, ptr %71, i64 1
  store float %70, ptr %72, align 4
  call void @llvm.lifetime.end.p0(i64 4, ptr %13) #7
  call void @llvm.lifetime.end.p0(i64 4, ptr %12) #7
  call void @llvm.lifetime.end.p0(i64 4, ptr %11) #7
  call void @llvm.lifetime.end.p0(i64 4, ptr %10) #7
  call void @llvm.lifetime.end.p0(i64 4, ptr %9) #7
  call void @llvm.lifetime.end.p0(i64 4, ptr %8) #7
  br label %73

73:                                               ; preds = %18
  %74 = load i32, ptr %7, align 4
  %75 = add nsw i32 %74, -1
  store i32 %75, ptr %7, align 4
  %76 = load ptr, ptr %5, align 8
  %77 = getelementptr inbounds float, ptr %76, i64 8
  store ptr %77, ptr %5, align 8
  %78 = load ptr, ptr %4, align 8
  %79 = getelementptr inbounds float, ptr %78, i64 2
  store ptr %79, ptr %4, align 8
  br label %15, !llvm.loop !94

80:                                               ; preds = %15
  call void @llvm.lifetime.end.p0(i64 4, ptr %7) #7
  ret void
}