; Function Attrs: nofree norecurse nosync nounwind memory(argmem: readwrite) uwtable
define internal void @SDL_Convert71ToStereo(ptr noundef writeonly captures(none) %0, ptr noundef readonly captures(none) %1, i32 noundef %2) #5 {
  %.not28 = icmp eq i32 %2, 0
  br i1 %.not28, label %._crit_edge, label %.lr.ph

.lr.ph:                                           ; preds = %3, %.lr.ph
  %.031 = phi ptr [ %35, %.lr.ph ], [ %0, %3 ]
  %.02630 = phi ptr [ %34, %.lr.ph ], [ %1, %3 ]
  %.02729 = phi i32 [ %33, %.lr.ph ], [ %2, %3 ]
  %4 = getelementptr inbounds nuw i8, ptr %.02630, i64 8
  %5 = load float, ptr %4, align 4
  %6 = getelementptr inbounds nuw i8, ptr %.02630, i64 12
  %7 = load float, ptr %6, align 4
  %8 = getelementptr inbounds nuw i8, ptr %.02630, i64 16
  %9 = load float, ptr %8, align 4
  %10 = getelementptr inbounds nuw i8, ptr %.02630, i64 20
  %11 = load float, ptr %10, align 4
  %12 = getelementptr inbounds nuw i8, ptr %.02630, i64 24
  %13 = load float, ptr %12, align 4
  %14 = getelementptr inbounds nuw i8, ptr %.02630, i64 28
  %15 = load float, ptr %14, align 4
  %16 = load float, ptr %.02630, align 4
  %17 = fmul float %5, 0x3FC33BF020000000
  %18 = tail call float @llvm.fmuladd.f32(float %16, float 0x3FCB1E7260000000, float %17)
  %19 = tail call float @llvm.fmuladd.f32(float %7, float 0x3FB1111120000000, float %18)
  %20 = tail call float @llvm.fmuladd.f32(float %9, float 0x3FC72D3160000000, float %19)
  %21 = tail call float @llvm.fmuladd.f32(float %11, float 0x3FBC6EDD80000000, float %20)
  %22 = tail call float @llvm.fmuladd.f32(float %13, float 0x3FC8D95C80000000, float %21)
  %23 = tail call float @llvm.fmuladd.f32(float %15, float 0x3FB5FB5BA0000000, float %22)
  store float %23, ptr %.031, align 4
  %24 = getelementptr inbounds nuw i8, ptr %.02630, i64 4
  %25 = load float, ptr %24, align 4
  %26 = tail call float @llvm.fmuladd.f32(float %25, float 0x3FCB1E7260000000, float %17)
  %27 = tail call float @llvm.fmuladd.f32(float %7, float 0x3FB1111120000000, float %26)
  %28 = tail call float @llvm.fmuladd.f32(float %9, float 0x3FBC6EDD80000000, float %27)
  %29 = tail call float @llvm.fmuladd.f32(float %11, float 0x3FC72D3160000000, float %28)
  %30 = tail call float @llvm.fmuladd.f32(float %13, float 0x3FB5FB5BA0000000, float %29)
  %31 = tail call float @llvm.fmuladd.f32(float %15, float 0x3FC8D95C80000000, float %30)
  %32 = getelementptr inbounds nuw i8, ptr %.031, i64 4
  store float %31, ptr %32, align 4
  %33 = add nsw i32 %.02729, -1
  %34 = getelementptr inbounds nuw i8, ptr %.02630, i64 32
  %35 = getelementptr inbounds nuw i8, ptr %.031, i64 8
  %.not = icmp eq i32 %33, 0
  br i1 %.not, label %._crit_edge, label %.lr.ph, !llvm.loop !100

._crit_edge:                                      ; preds = %.lr.ph, %3
  ret void
}